; ModuleID = '49/1161.c'
source_filename = "49/1161.c"
target datalayout = "e-m:e-p270:32:32-p271:32:32-p272:64:64-i64:64-f80:128-n8:16:32:64-S128"
target triple = "x86_64-pc-linux-gnu"

@.str = private unnamed_addr constant [3 x i8] c"%c\00", align 1
@.str.1 = private unnamed_addr constant [2 x i8] c"\0A\00", align 1

; Function Attrs: noinline nounwind uwtable
define dso_local i32 @main() #0 {
  %1 = alloca i32, align 4
  %2 = alloca i32, align 4
  %3 = alloca i32, align 4
  %4 = alloca i32, align 4
  %5 = alloca i32, align 4
  %6 = alloca [550 x i8], align 16
  store i32 0, i32* %1, align 4
  %7 = getelementptr inbounds [550 x i8], [550 x i8]* %6, i64 0, i64 0
  %8 = call i32 (i8*, ...) bitcast (i32 (...)* @gets to i32 (i8*, ...)*)(i8* %7)
  %9 = getelementptr inbounds [550 x i8], [550 x i8]* %6, i64 0, i64 0
  %10 = call i64 @strlen(i8* %9) #3
  %11 = trunc i64 %10 to i32
  store i32 %11, i32* %5, align 4
  store i32 1, i32* %2, align 4
  br label %12

12:                                               ; preds = %102, %0
  %13 = load i32, i32* %2, align 4
  %14 = load i32, i32* %5, align 4
  %15 = sdiv i32 %14, 2
  %16 = icmp sle i32 %13, %15
  br i1 %16, label %17, label %105

17:                                               ; preds = %12
  %18 = load i32, i32* %2, align 4
  %19 = sub nsw i32 %18, 1
  store i32 %19, i32* %3, align 4
  br label %20

20:                                               ; preds = %98, %17
  %21 = load i32, i32* %3, align 4
  %22 = load i32, i32* %5, align 4
  %23 = sub nsw i32 %22, 1
  %24 = load i32, i32* %2, align 4
  %25 = sub nsw i32 %23, %24
  %26 = icmp sle i32 %21, %25
  br i1 %26, label %27, label %101

27:                                               ; preds = %20
  %28 = load i32, i32* %3, align 4
  %29 = sext i32 %28 to i64
  %30 = getelementptr inbounds [550 x i8], [550 x i8]* %6, i64 0, i64 %29
  %31 = load i8, i8* %30, align 1
  %32 = sext i8 %31 to i32
  %33 = load i32, i32* %3, align 4
  %34 = add nsw i32 %33, 1
  %35 = sext i32 %34 to i64
  %36 = getelementptr inbounds [550 x i8], [550 x i8]* %6, i64 0, i64 %35
  %37 = load i8, i8* %36, align 1
  %38 = sext i8 %37 to i32
  %39 = icmp eq i32 %32, %38
  br i1 %39, label %40, label %97

40:                                               ; preds = %27
  store i32 1, i32* %4, align 4
  br label %41

41:                                               ; preds = %65, %40
  %42 = load i32, i32* %4, align 4
  %43 = load i32, i32* %2, align 4
  %44 = sub nsw i32 %43, 1
  %45 = icmp sle i32 %42, %44
  br i1 %45, label %46, label %68

46:                                               ; preds = %41
  %47 = load i32, i32* %3, align 4
  %48 = load i32, i32* %4, align 4
  %49 = sub nsw i32 %47, %48
  %50 = sext i32 %49 to i64
  %51 = getelementptr inbounds [550 x i8], [550 x i8]* %6, i64 0, i64 %50
  %52 = load i8, i8* %51, align 1
  %53 = sext i8 %52 to i32
  %54 = load i32, i32* %3, align 4
  %55 = add nsw i32 %54, 1
  %56 = load i32, i32* %4, align 4
  %57 = add nsw i32 %55, %56
  %58 = sext i32 %57 to i64
  %59 = getelementptr inbounds [550 x i8], [550 x i8]* %6, i64 0, i64 %58
  %60 = load i8, i8* %59, align 1
  %61 = sext i8 %60 to i32
  %62 = icmp ne i32 %53, %61
  br i1 %62, label %63, label %64

63:                                               ; preds = %46
  br label %68

64:                                               ; preds = %46
  br label %65

65:                                               ; preds = %64
  %66 = load i32, i32* %4, align 4
  %67 = add nsw i32 %66, 1
  store i32 %67, i32* %4, align 4
  br label %41

68:                                               ; preds = %63, %41
  %69 = load i32, i32* %4, align 4
  %70 = load i32, i32* %2, align 4
  %71 = sub nsw i32 %70, 1
  %72 = icmp sgt i32 %69, %71
  br i1 %72, label %73, label %96

73:                                               ; preds = %68
  %74 = load i32, i32* %3, align 4
  %75 = add nsw i32 %74, 1
  %76 = load i32, i32* %2, align 4
  %77 = sub nsw i32 %75, %76
  store i32 %77, i32* %4, align 4
  br label %78

78:                                               ; preds = %91, %73
  %79 = load i32, i32* %4, align 4
  %80 = load i32, i32* %3, align 4
  %81 = load i32, i32* %2, align 4
  %82 = add nsw i32 %80, %81
  %83 = icmp sle i32 %79, %82
  br i1 %83, label %84, label %94

84:                                               ; preds = %78
  %85 = load i32, i32* %4, align 4
  %86 = sext i32 %85 to i64
  %87 = getelementptr inbounds [550 x i8], [550 x i8]* %6, i64 0, i64 %86
  %88 = load i8, i8* %87, align 1
  %89 = sext i8 %88 to i32
  %90 = call i32 (i8*, ...) @printf(i8* getelementptr inbounds ([3 x i8], [3 x i8]* @.str, i64 0, i64 0), i32 %89)
  br label %91

91:                                               ; preds = %84
  %92 = load i32, i32* %4, align 4
  %93 = add nsw i32 %92, 1
  store i32 %93, i32* %4, align 4
  br label %78

94:                                               ; preds = %78
  %95 = call i32 (i8*, ...) @printf(i8* getelementptr inbounds ([2 x i8], [2 x i8]* @.str.1, i64 0, i64 0))
  br label %96

96:                                               ; preds = %94, %68
  br label %97

97:                                               ; preds = %96, %27
  br label %98

98:                                               ; preds = %97
  %99 = load i32, i32* %3, align 4
  %100 = add nsw i32 %99, 1
  store i32 %100, i32* %3, align 4
  br label %20

101:                                              ; preds = %20
  br label %102

102:                                              ; preds = %101
  %103 = load i32, i32* %2, align 4
  %104 = add nsw i32 %103, 1
  store i32 %104, i32* %2, align 4
  br label %12

105:                                              ; preds = %12
  ret i32 0
}

declare dso_local i32 @gets(...) #1

; Function Attrs: nounwind readonly
declare dso_local i64 @strlen(i8*) #2

declare dso_local i32 @printf(i8*, ...) #1


!llvm.module.flags = !{!0}
!llvm.ident = !{!1}

!0 = !{i32 1, !"wchar_size", i32 4}
!1 = !{!"clang version 10.0.0-4ubuntu1 "}
